; Function Attrs: mustprogress nofree norecurse nosync nounwind willreturn memory(argmem: write) uwtable
define hidden void @_ZN11solver_pool16reset_statisticsEv(ptr noundef nonnull writeonly align 8 captures(none) dereferenceable(136) initializes((24, 36), (48, 56), (72, 80), (96, 104), (120, 128)) %0) local_unnamed_addr #8 align 2 personality ptr @__gxx_personality_v0 {
  %2 = getelementptr inbounds nuw i8, ptr %0, i64 24
  tail call void @llvm.memset.p0.i64(ptr noundef nonnull align 8 dereferenceable(12) %2, i8 0, i64 12, i1 false)
  %3 = getelementptr inbounds nuw i8, ptr %0, i64 72
  store i64 0, ptr %3, align 8, !tbaa !51
  %4 = getelementptr inbounds nuw i8, ptr %0, i64 96
  store i64 0, ptr %4, align 8, !tbaa !51
  %5 = getelementptr inbounds nuw i8, ptr %0, i64 48
  store i64 0, ptr %5, align 8, !tbaa !51
  %6 = getelementptr inbounds nuw i8, ptr %0, i64 120
  store i64 0, ptr %6, align 8, !tbaa !51
  ret void
}